; Function Attrs: mustprogress uwtable
define dso_local void @_ZN9EmitCFunc18emitSetVarConstantERKNSt7__cxx1112basic_stringIcSt11char_traitsIcESaIcEEEP8AstConst(ptr noundef nonnull align 8 dereferenceable(361) %0, ptr noundef nonnull align 8 dereferenceable(32) %1, ptr noundef %2) local_unnamed_addr #3 align 2 personality ptr @__gxx_personality_v0 {
  %4 = alloca %"class.std::__cxx11::basic_string", align 8
  %5 = alloca %"class.std::allocator", align 1
  %6 = alloca %"class.std::__cxx11::basic_string", align 8
  %7 = alloca %"class.std::allocator", align 1
  %8 = getelementptr inbounds i8, ptr %2, i64 72
  %9 = load ptr, ptr %8, align 8
  %.not.i.i = icmp eq ptr %9, null
  br i1 %.not.i.i, label %_ZNK7AstNode6isWideEv.exit.thread, label %_ZNK7AstNode6isWideEv.exit

_ZNK7AstNode6isWideEv.exit:                       ; preds = %3
  %10 = getelementptr inbounds i8, ptr %9, i64 152
  %11 = load i32, ptr %10, align 8
  %12 = icmp sgt i32 %11, 64
  br i1 %12, label %25, label %_ZNK7AstNode6isWideEv.exit.thread

_ZNK7AstNode6isWideEv.exit.thread:                ; preds = %3, %_ZNK7AstNode6isWideEv.exit
  %13 = getelementptr inbounds i8, ptr %0, i64 8
  %14 = load ptr, ptr %13, align 8
  %15 = tail call noundef ptr @_ZNKSt7__cxx1112basic_stringIcSt11char_traitsIcESaIcEE5c_strEv(ptr noundef nonnull align 8 dereferenceable(32) %1) #17
  tail call void @_ZN14V3OutFormatter5putnsEPK7AstNodePKc(ptr noundef nonnull align 8 dereferenceable(164) %14, ptr noundef null, ptr noundef %15)
  call void @_ZNSaIcEC1Ev(ptr noundef nonnull align 1 dereferenceable(1) %5) #17
  %16 = invoke noundef ptr @_ZNSt7__cxx1112basic_stringIcSt11char_traitsIcESaIcEE13_M_local_dataEv(ptr noundef nonnull align 8 dereferenceable(32) %4)
          to label %.noexc unwind label %21

.noexc:                                           ; preds = %_ZNK7AstNode6isWideEv.exit.thread
  invoke void @_ZNSt7__cxx1112basic_stringIcSt11char_traitsIcESaIcEE12_Alloc_hiderC1EPcRKS3_(ptr noundef nonnull align 8 dereferenceable(8) %4, ptr noundef %16, ptr noundef nonnull align 1 dereferenceable(1) %5)
          to label %.noexc13 unwind label %21

.noexc13:                                         ; preds = %.noexc
  invoke void @_ZNSt7__cxx1112basic_stringIcSt11char_traitsIcESaIcEE12_M_constructIPKcEEvT_S8_St20forward_iterator_tag(ptr noundef nonnull align 8 dereferenceable(32) %4, ptr noundef nonnull @.str.67, ptr noundef nonnull getelementptr inbounds ([4 x i8], ptr @.str.67, i64 0, i64 3))
          to label %_ZNSt7__cxx1112basic_stringIcSt11char_traitsIcESaIcEEC2IS3_EEPKcRKS3_.exit unwind label %17

17:                                               ; preds = %.noexc13
  %18 = landingpad { ptr, i32 }
          cleanup
  call void @_ZNSaIcED2Ev(ptr noundef nonnull align 1 dereferenceable(1) %4) #17
  br label %.body

_ZNSt7__cxx1112basic_stringIcSt11char_traitsIcESaIcEEC2IS3_EEPKcRKS3_.exit: ; preds = %.noexc13
  %19 = load ptr, ptr %13, align 8
  %20 = call noundef ptr @_ZNKSt7__cxx1112basic_stringIcSt11char_traitsIcESaIcEE5c_strEv(ptr noundef nonnull align 8 dereferenceable(32) %4) #17
  invoke void @_ZN14V3OutFormatter5putnsEPK7AstNodePKc(ptr noundef nonnull align 8 dereferenceable(164) %19, ptr noundef null, ptr noundef %20)
          to label %_ZN21EmitCBaseVisitorConst4putsERKNSt7__cxx1112basic_stringIcSt11char_traitsIcESaIcEEE.exit unwind label %23

_ZN21EmitCBaseVisitorConst4putsERKNSt7__cxx1112basic_stringIcSt11char_traitsIcESaIcEEE.exit: ; preds = %_ZNSt7__cxx1112basic_stringIcSt11char_traitsIcESaIcEEC2IS3_EEPKcRKS3_.exit
  call void @_ZNSt7__cxx1112basic_stringIcSt11char_traitsIcESaIcEED1Ev(ptr noundef nonnull align 8 dereferenceable(32) %4) #17
  call void @_ZNSaIcED1Ev(ptr noundef nonnull align 1 dereferenceable(1) %5) #17
  br label %25

21:                                               ; preds = %.noexc, %_ZNK7AstNode6isWideEv.exit.thread
  %22 = landingpad { ptr, i32 }
          cleanup
  br label %.body

23:                                               ; preds = %_ZNSt7__cxx1112basic_stringIcSt11char_traitsIcESaIcEEC2IS3_EEPKcRKS3_.exit
  %24 = landingpad { ptr, i32 }
          cleanup
  call void @_ZNSt7__cxx1112basic_stringIcSt11char_traitsIcESaIcEED1Ev(ptr noundef nonnull align 8 dereferenceable(32) %4) #17
  br label %.body

25:                                               ; preds = %_ZN21EmitCBaseVisitorConst4putsERKNSt7__cxx1112basic_stringIcSt11char_traitsIcESaIcEEE.exit, %_ZNK7AstNode6isWideEv.exit
  call void @_ZN9EmitCFunc12emitConstantEP8AstConstP9AstVarRefRKNSt7__cxx1112basic_stringIcSt11char_traitsIcESaIcEEE(ptr noundef nonnull align 8 dereferenceable(361) %0, ptr noundef nonnull %2, ptr noundef null, ptr noundef nonnull align 8 dereferenceable(32) %1)
  call void @_ZNSaIcEC1Ev(ptr noundef nonnull align 1 dereferenceable(1) %7) #17
  %26 = invoke noundef ptr @_ZNSt7__cxx1112basic_stringIcSt11char_traitsIcESaIcEE13_M_local_dataEv(ptr noundef nonnull align 8 dereferenceable(32) %6)
          to label %.noexc15 unwind label %32

.noexc15:                                         ; preds = %25
  invoke void @_ZNSt7__cxx1112basic_stringIcSt11char_traitsIcESaIcEE12_Alloc_hiderC1EPcRKS3_(ptr noundef nonnull align 8 dereferenceable(8) %6, ptr noundef %26, ptr noundef nonnull align 1 dereferenceable(1) %7)
          to label %.noexc16 unwind label %32

.noexc16:                                         ; preds = %.noexc15
  invoke void @_ZNSt7__cxx1112basic_stringIcSt11char_traitsIcESaIcEE12_M_constructIPKcEEvT_S8_St20forward_iterator_tag(ptr noundef nonnull align 8 dereferenceable(32) %6, ptr noundef nonnull @.str.21, ptr noundef nonnull getelementptr inbounds ([3 x i8], ptr @.str.21, i64 0, i64 2))
          to label %_ZNSt7__cxx1112basic_stringIcSt11char_traitsIcESaIcEEC2IS3_EEPKcRKS3_.exit19 unwind label %27

27:                                               ; preds = %.noexc16
  %28 = landingpad { ptr, i32 }
          cleanup
  call void @_ZNSaIcED2Ev(ptr noundef nonnull align 1 dereferenceable(1) %6) #17
  br label %.body

_ZNSt7__cxx1112basic_stringIcSt11char_traitsIcESaIcEEC2IS3_EEPKcRKS3_.exit19: ; preds = %.noexc16
  %29 = getelementptr inbounds i8, ptr %0, i64 8
  %30 = load ptr, ptr %29, align 8
  %31 = call noundef ptr @_ZNKSt7__cxx1112basic_stringIcSt11char_traitsIcESaIcEE5c_strEv(ptr noundef nonnull align 8 dereferenceable(32) %6) #17
  invoke void @_ZN14V3OutFormatter5putnsEPK7AstNodePKc(ptr noundef nonnull align 8 dereferenceable(164) %30, ptr noundef null, ptr noundef %31)
          to label %_ZN21EmitCBaseVisitorConst4putsERKNSt7__cxx1112basic_stringIcSt11char_traitsIcESaIcEEE.exit21 unwind label %34

_ZN21EmitCBaseVisitorConst4putsERKNSt7__cxx1112basic_stringIcSt11char_traitsIcESaIcEEE.exit21: ; preds = %_ZNSt7__cxx1112basic_stringIcSt11char_traitsIcESaIcEEC2IS3_EEPKcRKS3_.exit19
  call void @_ZNSt7__cxx1112basic_stringIcSt11char_traitsIcESaIcEED1Ev(ptr noundef nonnull align 8 dereferenceable(32) %6) #17
  call void @_ZNSaIcED1Ev(ptr noundef nonnull align 1 dereferenceable(1) %7) #17
  ret void

32:                                               ; preds = %.noexc15, %25
  %33 = landingpad { ptr, i32 }
          cleanup
  br label %.body

34:                                               ; preds = %_ZNSt7__cxx1112basic_stringIcSt11char_traitsIcESaIcEEC2IS3_EEPKcRKS3_.exit19
  %35 = landingpad { ptr, i32 }
          cleanup
  call void @_ZNSt7__cxx1112basic_stringIcSt11char_traitsIcESaIcEED1Ev(ptr noundef nonnull align 8 dereferenceable(32) %6) #17
  br label %.body

.body:                                            ; preds = %34, %27, %32, %23, %17, %21
  %.sink = phi ptr [ %5, %21 ], [ %5, %17 ], [ %5, %23 ], [ %7, %32 ], [ %7, %27 ], [ %7, %34 ]
  %.pn10.pn = phi { ptr, i32 } [ %22, %21 ], [ %18, %17 ], [ %24, %23 ], [ %33, %32 ], [ %28, %27 ], [ %35, %34 ]
  call void @_ZNSaIcED1Ev(ptr noundef nonnull align 1 dereferenceable(1) %.sink) #17
  resume { ptr, i32 } %.pn10.pn
}